target datalayout = "e-m:e-p270:32:32-p271:32:32-p272:64:64-i64:64-i128:128-f80:128-n8:16:32:64-S128"
target triple = "x86_64-pc-linux-gnu"

%struct.quic_rcidm_st = type { %struct.quic_conn_id_st, %struct.quic_conn_id_st, %struct.quic_conn_id_st, i64, i64, i64, ptr, ptr, %struct.ossl_list_st_retiring, i64, i8 }
%struct.quic_conn_id_st = type { i8, [20 x i8] }
%struct.ossl_list_st_retiring = type { ptr, ptr, i64 }

; Function Attrs: nounwind uwtable
define i32 @ossl_quic_rcidm_get_preferred_tx_dcid(ptr noundef %0, ptr noundef %1) #0 {
  %3 = alloca i32, align 4
  %4 = alloca ptr, align 8
  %5 = alloca ptr, align 8
  store ptr %0, ptr %4, align 8, !tbaa !8
  store ptr %1, ptr %5, align 8, !tbaa !3
  %6 = load ptr, ptr %4, align 8, !tbaa !8
  %7 = getelementptr inbounds nuw %struct.quic_rcidm_st, ptr %6, i32 0, i32 10
  %8 = load i8, ptr %7, align 8
  %9 = lshr i8 %8, 1
  %10 = and i8 %9, 1
  %11 = zext i8 %10 to i32
  %12 = icmp ne i32 %11, 0
  br i1 %12, label %14, label %13

13:                                               ; preds = %2
  store i32 0, ptr %3, align 4
  br label %18

14:                                               ; preds = %2
  %15 = load ptr, ptr %5, align 8, !tbaa !3
  %16 = load ptr, ptr %4, align 8, !tbaa !8
  %17 = getelementptr inbounds nuw %struct.quic_rcidm_st, ptr %16, i32 0, i32 0
  call void @llvm.memcpy.p0.p0.i64(ptr align 1 %15, ptr align 8 %17, i64 21, i1 false), !tbaa.struct !18
  store i32 1, ptr %3, align 4
  br label %18

18:                                               ; preds = %14, %13
  %19 = load i32, ptr %3, align 4
  ret i32 %19
}