; Function Attrs: mustprogress nofree norecurse nosync nounwind willreturn memory(argmem: readwrite) uwtable
define range(i32 0, 2) i32 @ossl_quic_rcidm_get_preferred_tx_dcid(ptr noundef readonly captures(none) %0, ptr noundef writeonly captures(none) %1) local_unnamed_addr #5 {
  %3 = getelementptr inbounds nuw i8, ptr %0, i64 136
  %4 = load i8, ptr %3, align 8
  %5 = and i8 %4, 2
  %.not = icmp eq i8 %5, 0
  br i1 %.not, label %7, label %6

6:                                                ; preds = %2
  tail call void @llvm.memcpy.p0.p0.i64(ptr noundef nonnull align 1 dereferenceable(21) %1, ptr noundef nonnull align 8 dereferenceable(21) %0, i64 21, i1 false), !tbaa.struct !14
  br label %7

7:                                                ; preds = %2, %6
  %.0 = phi i32 [ 1, %6 ], [ 0, %2 ]
  ret i32 %.0
}